###############################################################################
#                                                                             #
# IAR C/C++ Compiler V8.10.3.10338/W32 for 8051         09/Mar/2017  09:46:12 #
# Copyright 2004-2011 IAR Systems AB.                                         #
#                                                                             #
#    Core               =  plain                                              #
#    Code model         =  banked                                             #
#    Data model         =  large                                              #
#    Calling convention =  xdata reentrant                                    #
#    Constant location  =  data_rom                                           #
#    Dptr setup         =  1,16                                               #
#    Source file        =  C:\Users\Administrator\Desktop\广大实训资料\enddev #
#                          ice\Projects\zstack\Samples\SampleApp\Source\Sampl #
#                          eApp.c                                             #
#    Command line       =  -f C:\Users\Administrator\Desktop\广大实训资料\end #
#                          device\Projects\zstack\Samples\SampleApp\CC2530DB\ #
#                          ..\..\..\Tools\CC2530DB\f8wEndev.cfg (-DCPU32MHZ   #
#                          -DROOT=__near_func -DBLINK_LEDS) -f                #
#                          C:\Users\Administrator\Desktop\广大实训资料\enddev #
#                          ice\Projects\zstack\Samples\SampleApp\CC2530DB\..\ #
#                          ..\..\Tools\CC2530DB\f8wConfig.cfg (-DSECURE=0     #
#                          -DZG_SECURE_DYNAMIC=0 -DREFLECTOR                  #
#                          -DDEFAULT_CHANLIST=0x00000800                      #
#                          -DZDAPP_CONFIG_PAN_ID=0x00ff                       #
#                          -DNWK_START_DELAY=100 -DEXTENDED_JOINING_RANDOM_MA #
#                          SK=0x007F -DBEACON_REQUEST_DELAY=100               #
#                          -DBEACON_REQ_DELAY_MASK=0x00FF                     #
#                          -DROUTE_EXPIRY_TIME=30 -DAPSC_ACK_WAIT_DURATION_PO #
#                          LLED=3000 -DNWK_INDIRECT_MSG_TIMEOUT=7             #
#                          -DMAX_RREQ_ENTRIES=8 -DAPSC_MAX_FRAME_RETRIES=3    #
#                          -DNWK_MAX_DATA_RETRIES=2                           #
#                          -DMAX_POLL_FAILURE_RETRIES=2 -DMAX_BCAST=9         #
#                          -DAPS_MAX_GROUPS=16 -DMAX_RTG_ENTRIES=40           #
#                          -DNWK_MAX_BINDING_ENTRIES=4                        #
#                          -DMAX_BINDING_CLUSTER_IDS=4 "-DDEFAULT_KEY={0x01,  #
#                          0x03, 0x05, 0x07, 0x09, 0x0B, 0x0D, 0x0F, 0x00,    #
#                          0x02, 0x04, 0x06, 0x08, 0x0A, 0x0C, 0x0D}"         #
#                          -DMAC_MAX_FRAME_SIZE=116 "-DCONST=const __code"    #
#                          -DGENERIC=__generic -DRFD_RCVC_ALWAYS_ON=FALSE     #
#                          -DPOLL_RATE=1000 -DQUEUED_POLL_RATE=100            #
#                          -DRESPONSE_POLL_RATE=100) -DREJOIN_POLL_RATE=440   #
#                          C:\Users\Administrator\Desktop\广大实训资料\enddev #
#                          ice\Projects\zstack\Samples\SampleApp\Source\Sampl #
#                          eApp.c -D NWK_AUTO_POLL -D ZTOOL_P1 -D MT_TASK -D  #
#                          MT_SYS_FUNC -D MT_ZDO_FUNC -D LCD_SUPPORTED=DEBUG  #
#                          -lC C:\Users\Administrator\Desktop\广大实训资料\en #
#                          ddevice\Projects\zstack\Samples\SampleApp\CC2530DB #
#                          \EndDeviceEB\List\ -lA C:\Users\Administrator\Desk #
#                          top\广大实训资料\enddevice\Projects\zstack\Samples #
#                          \SampleApp\CC2530DB\EndDeviceEB\List\              #
#                          --diag_suppress Pe001,Pa010 -o                     #
#                          C:\Users\Administrator\Desktop\广大实训资料\enddev #
#                          ice\Projects\zstack\Samples\SampleApp\CC2530DB\End #
#                          DeviceEB\Obj\ -e --debug --core=plain --dptr=16,1  #
#                          --data_model=large --code_model=banked             #
#                          --calling_convention=xdata_reentrant               #
#                          --place_constants=data_rom --nr_virtual_regs 16    #
#                          -I C:\Users\Administrator\Desktop\广大实训资料\end #
#                          device\Projects\zstack\Samples\SampleApp\CC2530DB\ #
#                           -I C:\Users\Administrator\Desktop\广大实训资料\en #
#                          ddevice\Projects\zstack\Samples\SampleApp\CC2530DB #
#                          \..\SOURCE\ -I C:\Users\Administrator\Desktop\广大 #
#                          实训资料\enddevice\Projects\zstack\Samples\SampleA #
#                          pp\CC2530DB\..\..\..\ZMAIN\TI2530DB\ -I            #
#                          C:\Users\Administrator\Desktop\广大实训资料\enddev #
#                          ice\Projects\zstack\Samples\SampleApp\CC2530DB\..\ #
#                          ..\..\..\..\COMPONENTS\MT\ -I                      #
#                          C:\Users\Administrator\Desktop\广大实训资料\enddev #
#                          ice\Projects\zstack\Samples\SampleApp\CC2530DB\..\ #
#                          ..\..\..\..\COMPONENTS\HAL\INCLUDE\ -I             #
#                          C:\Users\Administrator\Desktop\广大实训资料\enddev #
#                          ice\Projects\zstack\Samples\SampleApp\CC2530DB\..\ #
#                          ..\..\..\..\COMPONENTS\HAL\TARGET\CC2530EB\ -I     #
#                          C:\Users\Administrator\Desktop\广大实训资料\enddev #
#                          ice\Projects\zstack\Samples\SampleApp\CC2530DB\..\ #
#                          ..\..\..\..\COMPONENTS\OSAL\MCU\CCSOC\ -I          #
#                          C:\Users\Administrator\Desktop\广大实训资料\enddev #
#                          ice\Projects\zstack\Samples\SampleApp\CC2530DB\..\ #
#                          ..\..\..\..\COMPONENTS\OSAL\INCLUDE\ -I            #
#                          C:\Users\Administrator\Desktop\广大实训资料\enddev #
#                          ice\Projects\zstack\Samples\SampleApp\CC2530DB\..\ #
#                          ..\..\..\..\COMPONENTS\STACK\AF\ -I                #
#                          C:\Users\Administrator\Desktop\广大实训资料\enddev #
#                          ice\Projects\zstack\Samples\SampleApp\CC2530DB\..\ #
#                          ..\..\..\..\COMPONENTS\STACK\NWK\ -I               #
#                          C:\Users\Administrator\Desktop\广大实训资料\enddev #
#                          ice\Projects\zstack\Samples\SampleApp\CC2530DB\..\ #
#                          ..\..\..\..\COMPONENTS\STACK\SEC\ -I               #
#                          C:\Users\Administrator\Desktop\广大实训资料\enddev #
#                          ice\Projects\zstack\Samples\SampleApp\CC2530DB\..\ #
#                          ..\..\..\..\COMPONENTS\STACK\SAPI\ -I              #
#                          C:\Users\Administrator\Desktop\广大实训资料\enddev #
#                          ice\Projects\zstack\Samples\SampleApp\CC2530DB\..\ #
#                          ..\..\..\..\COMPONENTS\STACK\SYS\ -I               #
#                          C:\Users\Administrator\Desktop\广大实训资料\enddev #
#                          ice\Projects\zstack\Samples\SampleApp\CC2530DB\..\ #
#                          ..\..\..\..\COMPONENTS\STACK\ZDO\ -I               #
#                          C:\Users\Administrator\Desktop\广大实训资料\enddev #
#                          ice\Projects\zstack\Samples\SampleApp\CC2530DB\..\ #
#                          ..\..\..\..\COMPONENTS\ZMAC\F8W\ -I                #
#                          C:\Users\Administrator\Desktop\广大实训资料\enddev #
#                          ice\Projects\zstack\Samples\SampleApp\CC2530DB\..\ #
#                          ..\..\..\..\COMPONENTS\ZMAC\ -I                    #
#                          C:\Users\Administrator\Desktop\广大实训资料\enddev #
#                          ice\Projects\zstack\Samples\SampleApp\CC2530DB\..\ #
#                          ..\..\..\..\COMPONENTS\SERVICES\SADDR\ -I          #
#                          C:\Users\Administrator\Desktop\广大实训资料\enddev #
#                          ice\Projects\zstack\Samples\SampleApp\CC2530DB\..\ #
#                          ..\..\..\..\COMPONENTS\SERVICES\SDATA\ -I          #
#                          C:\Users\Administrator\Desktop\广大实训资料\enddev #
#                          ice\Projects\zstack\Samples\SampleApp\CC2530DB\..\ #
#                          ..\..\..\..\COMPONENTS\MAC\INCLUDE\ -I             #
#                          C:\Users\Administrator\Desktop\广大实训资料\enddev #
#                          ice\Projects\zstack\Samples\SampleApp\CC2530DB\..\ #
#                          ..\..\..\..\COMPONENTS\MAC\HIGH_LEVEL\ -I          #
#                          C:\Users\Administrator\Desktop\广大实训资料\enddev #
#                          ice\Projects\zstack\Samples\SampleApp\CC2530DB\..\ #
#                          ..\..\..\..\COMPONENTS\MAC\LOW_LEVEL\srf04\ -I     #
#                          C:\Users\Administrator\Desktop\广大实训资料\enddev #
#                          ice\Projects\zstack\Samples\SampleApp\CC2530DB\..\ #
#                          ..\..\..\..\COMPONENTS\MAC\LOW_LEVEL\srf04\SINGLE_ #
#                          CHIP\ -Ohz                                         #
#    List file          =  C:\Users\Administrator\Desktop\广大实训资料\enddev #
#                          ice\Projects\zstack\Samples\SampleApp\CC2530DB\End #
#                          DeviceEB\List\SampleApp.lst                        #
#    Object file        =  C:\Users\Administrator\Desktop\广大实训资料\enddev #
#                          ice\Projects\zstack\Samples\SampleApp\CC2530DB\End #
#                          DeviceEB\Obj\SampleApp.r51                         #
#                                                                             #
#                                                                             #
###############################################################################

C:\Users\Administrator\Desktop\广大实训资料\enddevice\Projects\zstack\Samples\SampleApp\Source\SampleApp.c
      1          /**************************************************************************************************
      2            Filename:       SampleApp.c
      3            Revised:        $Date: 2009-03-18 15:56:27 -0700 (Wed, 18 Mar 2009) $
      4            Revision:       $Revision: 19453 $
      5          
      6            Description:    Sample Application (no Profile).
      7          
      8          
      9            Copyright 2007 Texas Instruments Incorporated. All rights reserved.
     10          
     11            IMPORTANT: Your use of this Software is limited to those specific rights
     12            granted under the terms of a software license agreement between the user
     13            who downloaded the software, his/her employer (which must be your employer)
     14            and Texas Instruments Incorporated (the "License").  You may not use this
     15            Software unless you agree to abide by the terms of the License. The License
     16            limits your use, and you acknowledge, that the Software may not be modified,
     17            copied or distributed unless embedded on a Texas Instruments microcontroller
     18            or used solely and exclusively in conjunction with a Texas Instruments radio
     19            frequency transceiver, which is integrated into your product.  Other than for
     20            the foregoing purpose, you may not use, reproduce, copy, prepare derivative
     21            works of, modify, distribute, perform, display or sell this Software and/or
     22            its documentation for any purpose.
     23          
     24            YOU FURTHER ACKNOWLEDGE AND AGREE THAT THE SOFTWARE AND DOCUMENTATION ARE
     25            PROVIDED AS IS?WITHOUT WARRANTY OF ANY KIND, EITHER EXPRESS OR IMPLIED,
     26            INCLUDING WITHOUT LIMITATION, ANY WARRANTY OF MERCHANTABILITY, TITLE,
     27            NON-INFRINGEMENT AND FITNESS FOR A PARTICULAR PURPOSE. IN NO EVENT SHALL
     28            TEXAS INSTRUMENTS OR ITS LICENSORS BE LIABLE OR OBLIGATED UNDER CONTRACT,
     29            NEGLIGENCE, STRICT LIABILITY, CONTRIBUTION, BREACH OF WARRANTY, OR OTHER
     30            LEGAL EQUITABLE THEORY ANY DIRECT OR INDIRECT DAMAGES OR EXPENSES
     31            INCLUDING BUT NOT LIMITED TO ANY INCIDENTAL, SPECIAL, INDIRECT, PUNITIVE
     32            OR CONSEQUENTIAL DAMAGES, LOST PROFITS OR LOST DATA, COST OF PROCUREMENT
     33            OF SUBSTITUTE GOODS, TECHNOLOGY, SERVICES, OR ANY CLAIMS BY THIRD PARTIES
     34            (INCLUDING BUT NOT LIMITED TO ANY DEFENSE THEREOF), OR OTHER SIMILAR COSTS.
     35          
     36            Should you have any questions regarding your right to use this Software,
     37            contact Texas Instruments Incorporated at www.TI.com.
     38          **************************************************************************************************/
     39          
     40          /*********************************************************************
     41            This application isn't intended to do anything useful, it is
     42            intended to be a simple example of an application's structure.
     43          
     44            This application sends it's messages either as broadcast or
     45            broadcast filtered group messages.  The other (more normal)
     46            message addressing is unicast.  Most of the other sample
     47            applications are written to support the unicast message model.
     48          
     49            Key control:
     50              SW1:  Sends a flash command to all devices in Group 1.
     51              SW2:  Adds/Removes (toggles) this device in and out
     52                    of Group 1.  This will enable and disable the
     53                    reception of the flash command.
     54          *********************************************************************/
     55          
     56          /*********************************************************************
     57           * INCLUDES
     58           */
     59          #include "OSAL.h"
     60          #include "ZGlobals.h"
     61          #include "AF.h"
     62          #include "aps_groups.h"
     63          #include "ZDApp.h"
     64          
     65          #include "SampleApp.h"
     66          #include "SampleAppHw.h"
     67          
     68          #include "OnBoard.h"

   \                                 In  segment SFR_AN, at 0x90
   \   union <unnamed> volatile __sfr _A_P1
   \                     _A_P1:
   \   000000                DS 1

   \                                 In  segment SFR_AN, at 0xf4
   \   unsigned char volatile __sfr P1SEL
   \                     P1SEL:
   \   000000                DS 1

   \                                 In  segment SFR_AN, at 0xfe
   \   unsigned char volatile __sfr P1DIR
   \                     P1DIR:
   \   000000                DS 1
     69          #include "DHT11.h"
     70          
     71          /* HAL */
     72          #include "hal_lcd.h"
     73          #include "hal_led.h"
     74          #include "hal_key.h"
     75          
     76          #include <ioCC2530.h>
     77          #define BLED P1_0
     78          #define YLED P1_1
     79          //全部变量用于存储温湿度

   \                                 In  segment XDATA_Z, align 1, keep-with-next
     80          uint8  DHT11_buf[6],T,H;
   \                     DHT11_buf:
   \   000000                DS 6
   \   000006                REQUIRE __INIT_XDATA_Z

   \                                 In  segment XDATA_Z, align 1, keep-with-next
   \                     T:
   \   000000                DS 1
   \   000001                REQUIRE __INIT_XDATA_Z

   \                                 In  segment XDATA_Z, align 1, keep-with-next
   \                     H:
   \   000000                DS 1
   \   000001                REQUIRE __INIT_XDATA_Z
     81          
     82          /*********************************************************************
     83           * MACROS
     84           */
     85          
     86          /*********************************************************************
     87           * CONSTANTS
     88           */
     89          
     90          /*********************************************************************
     91           * TYPEDEFS
     92           */
     93          
     94          /*********************************************************************
     95           * GLOBAL VARIABLES
     96           */
     97          
     98          // This list should be filled with Application specific Cluster IDs.

   \                                 In  segment XDATA_ROM_C, align 1
     99          const cId_t SampleApp_ClusterList[SAMPLEAPP_MAX_CLUSTERS] =
   \                     SampleApp_ClusterList:
   \   000000   0100         DW 1
   \   000002   0200         DW 2
    100          {
    101            SAMPLEAPP_PERIODIC_CLUSTERID,
    102            SAMPLEAPP_FLASH_CLUSTERID
    103          };
    104          

   \                                 In  segment XDATA_ROM_C, align 1
    105          const SimpleDescriptionFormat_t SampleApp_SimpleDesc =
   \                     SampleApp_SimpleDesc:
   \   000000   14           DB 20
   \   000001   080F         DW 3848
   \   000003   0100         DW 1
   \   000005   00           DB 0
   \   000006   02           DB 2
   \   000007   ....         DW SampleApp_ClusterList
   \   000009   02           DB 2
   \   00000A   ....         DW SampleApp_ClusterList
    106          {
    107            SAMPLEAPP_ENDPOINT,              //  int Endpoint;
    108            SAMPLEAPP_PROFID,                //  uint16 AppProfId[2];
    109            SAMPLEAPP_DEVICEID,              //  uint16 AppDeviceId[2];
    110            SAMPLEAPP_DEVICE_VERSION,        //  int   AppDevVer:4;
    111            SAMPLEAPP_FLAGS,                 //  int   AppFlags:4;
    112            SAMPLEAPP_MAX_CLUSTERS,          //  uint8  AppNumInClusters;
    113            (cId_t *)SampleApp_ClusterList,  //  uint8 *pAppInClusterList;
    114            SAMPLEAPP_MAX_CLUSTERS,          //  uint8  AppNumInClusters;
    115            (cId_t *)SampleApp_ClusterList   //  uint8 *pAppInClusterList;
    116          };
    117          
    118          // This is the Endpoint/Interface description.  It is defined here, but
    119          // filled-in in SampleApp_Init().  Another way to go would be to fill
    120          // in the structure here and make it a "const" (in code space).  The
    121          // way it's defined in this sample app it is define in RAM.

   \                                 In  segment XDATA_Z, align 1, keep-with-next
    122          endPointDesc_t SampleApp_epDesc;
   \                     SampleApp_epDesc:
   \   000000                DS 6
   \   000006                REQUIRE __INIT_XDATA_Z
    123          
    124          /*********************************************************************
    125           * EXTERNAL VARIABLES
    126           */
    127          
    128          /*********************************************************************
    129           * EXTERNAL FUNCTIONS
    130           */
    131          
    132          /*********************************************************************
    133           * LOCAL VARIABLES
    134           */

   \                                 In  segment XDATA_Z, align 1, keep-with-next
    135          uint8 SampleApp_TaskID;   // Task ID for internal task/event processing
   \                     SampleApp_TaskID:
   \   000000                DS 1
   \   000001                REQUIRE __INIT_XDATA_Z
    136                                    // This variable will be received when
    137                                    // SampleApp_Init() is called.

   \                                 In  segment XDATA_Z, align 1, keep-with-next
    138          devStates_t SampleApp_NwkState;
   \                     SampleApp_NwkState:
   \   000000                DS 1
   \   000001                REQUIRE __INIT_XDATA_Z
    139          

   \                                 In  segment XDATA_Z, align 1, keep-with-next
    140          uint8 SampleApp_TransID;  // This is the unique message ID (counter)
   \                     SampleApp_TransID:
   \   000000                DS 1
   \   000001                REQUIRE __INIT_XDATA_Z
    141          

   \                                 In  segment XDATA_Z, align 1, keep-with-next
    142          afAddrType_t SampleApp_Periodic_DstAddr;
   \                     SampleApp_Periodic_DstAddr:
   \   000000                DS 12
   \   00000C                REQUIRE __INIT_XDATA_Z

   \                                 In  segment XDATA_Z, align 1, keep-with-next
    143          afAddrType_t SampleApp_Flash_DstAddr;
   \                     SampleApp_Flash_DstAddr:
   \   000000                DS 12
   \   00000C                REQUIRE __INIT_XDATA_Z
    144          

   \                                 In  segment XDATA_Z, align 1, keep-with-next
    145          aps_Group_t SampleApp_Group;
   \                     SampleApp_Group:
   \   000000                DS 18
   \   000012                REQUIRE __INIT_XDATA_Z
    146          

   \                                 In  segment XDATA_Z, align 1, keep-with-next
    147          uint8 SampleAppPeriodicCounter = 0;
   \                     SampleAppPeriodicCounter:
   \   000000                DS 1
   \   000001                REQUIRE __INIT_XDATA_Z

   \                                 In  segment XDATA_Z, align 1, keep-with-next
    148          uint8 SampleAppFlashCounter = 0;
   \                     SampleAppFlashCounter:
   \   000000                DS 1
   \   000001                REQUIRE __INIT_XDATA_Z
    149          
    150          /*********************************************************************
    151           * LOCAL FUNCTIONS
    152           */
    153          void SampleApp_HandleKeys( uint8 shift, uint8 keys );
    154          void SampleApp_MessageMSGCB( afIncomingMSGPacket_t *pckt );
    155          void SampleApp_SendPeriodicMessage( void );
    156          void SampleApp_SendFlashMessage( uint16 flashTime );
    157          void end_send_dht11_data( uint8 *buf, uint16 len );
    158          
    159          void delay_ms();
    160          
    161          
    162          /*********************************************************************
    163           * NETWORK LAYER CALLBACKS
    164           */
    165          
    166          /*********************************************************************
    167           * PUBLIC FUNCTIONS
    168           */
    169          
    170          /*********************************************************************
    171           * @fn      SampleApp_Init
    172           *
    173           * @brief   Initialization function for the Generic App Task.
    174           *          This is called during initialization and should contain
    175           *          any application specific initialization (ie. hardware
    176           *          initialization/setup, table initialization, power up
    177           *          notificaiton ... ).
    178           *
    179           * @param   task_id - the ID assigned by OSAL.  This ID should be
    180           *                    used to send messages and set timers.
    181           *
    182           * @return  none
    183           */

   \                                 In  segment BANKED_CODE, align 1, keep-with-next
    184          void SampleApp_Init( uint8 task_id )
   \                     SampleApp_Init:
    185          {
   \   000000   74F5         MOV     A,#-0xb
   \   000002   12....       LCALL   ?BANKED_ENTER_XDATA
   \   000005                ; Saved register size: 11
   \   000005                ; Auto size: 0
   \   000005   E9           MOV     A,R1
    186            SampleApp_TaskID = task_id;
   \   000006   90....       MOV     DPTR,#SampleApp_TaskID
   \   000009   F0           MOVX    @DPTR,A
    187            SampleApp_NwkState = DEV_INIT;
   \   00000A   90....       MOV     DPTR,#SampleApp_NwkState
   \   00000D   7401         MOV     A,#0x1
   \   00000F   F0           MOVX    @DPTR,A
    188            SampleApp_TransID = 0;
   \   000010   90....       MOV     DPTR,#SampleApp_TransID
   \   000013   E4           CLR     A
   \   000014   F0           MOVX    @DPTR,A
    189          
    190            //led init
    191            P1SEL &=0xfc; //通用IO
   \   000015   53F4FC       ANL     0xf4,#0xfc
    192            P1DIR |=0x03; //output
   \   000018   43FE03       ORL     0xfe,#0x3
    193            
    194            
    195            // Device hardware initialization can be added here or in main() (Zmain.c).
    196            // If the hardware is application specific - add it here.
    197            // If the hardware is other parts of the device add it in main().
    198          
    199           #if defined ( BUILD_ALL_DEVICES )
    200            // The "Demo" target is setup to have BUILD_ALL_DEVICES and HOLD_AUTO_START
    201            // We are looking at a jumper (defined in SampleAppHw.c) to be jumpered
    202            // together - if they are - we will start up a coordinator. Otherwise,
    203            // the device will start as a router.
    204            if ( readCoordinatorJumper() )
    205              zgDeviceLogicalType = ZG_DEVICETYPE_COORDINATOR;
    206            else
    207              zgDeviceLogicalType = ZG_DEVICETYPE_ROUTER;
    208          #endif // BUILD_ALL_DEVICES
    209          
    210          #if defined ( HOLD_AUTO_START )
    211            // HOLD_AUTO_START is a compile option that will surpress ZDApp
    212            //  from starting the device and wait for the application to
    213            //  start the device.
    214            ZDOInitDevice(0);
    215          #endif
    216          
    217            // Setup for the periodic message's destination address
    218            // Broadcast to everyone
    219            SampleApp_Periodic_DstAddr.addrMode = (afAddrMode_t)AddrBroadcast;
   \   00001B   90....       MOV     DPTR,#SampleApp_Periodic_DstAddr + 8
   \   00001E   740F         MOV     A,#0xf
   \   000020   F0           MOVX    @DPTR,A
    220            SampleApp_Periodic_DstAddr.endPoint = SAMPLEAPP_ENDPOINT;
   \   000021   A3           INC     DPTR
   \   000022   7414         MOV     A,#0x14
   \   000024   F0           MOVX    @DPTR,A
    221            SampleApp_Periodic_DstAddr.addr.shortAddr = 0xFFFF;
   \   000025   90....       MOV     DPTR,#SampleApp_Periodic_DstAddr
   \   000028   74FF         MOV     A,#-0x1
   \   00002A   F0           MOVX    @DPTR,A
   \   00002B   A3           INC     DPTR
   \   00002C   F0           MOVX    @DPTR,A
    222          
    223            // Setup for the flash command's destination address - Group 1
    224            SampleApp_Flash_DstAddr.addrMode = (afAddrMode_t)afAddrGroup;
   \   00002D   90....       MOV     DPTR,#SampleApp_Flash_DstAddr + 8
   \   000030   7401         MOV     A,#0x1
   \   000032   F0           MOVX    @DPTR,A
    225            SampleApp_Flash_DstAddr.endPoint = SAMPLEAPP_ENDPOINT;
   \   000033   A3           INC     DPTR
   \   000034   7414         MOV     A,#0x14
   \   000036   F0           MOVX    @DPTR,A
    226            SampleApp_Flash_DstAddr.addr.shortAddr = SAMPLEAPP_FLASH_GROUP;
   \   000037   90....       MOV     DPTR,#SampleApp_Flash_DstAddr
   \   00003A   7401         MOV     A,#0x1
   \   00003C   F0           MOVX    @DPTR,A
   \   00003D   A3           INC     DPTR
   \   00003E   E4           CLR     A
   \   00003F   F0           MOVX    @DPTR,A
    227          
    228            // Fill out the endpoint description.
    229            SampleApp_epDesc.endPoint = SAMPLEAPP_ENDPOINT;
   \   000040   90....       MOV     DPTR,#SampleApp_epDesc
   \   000043   7414         MOV     A,#0x14
   \   000045   F0           MOVX    @DPTR,A
    230            SampleApp_epDesc.task_id = &SampleApp_TaskID;
   \   000046   A3           INC     DPTR
   \   000047   74..         MOV     A,#SampleApp_TaskID & 0xff
   \   000049   F0           MOVX    @DPTR,A
   \   00004A   A3           INC     DPTR
   \   00004B   74..         MOV     A,#(SampleApp_TaskID >> 8) & 0xff
   \   00004D   F0           MOVX    @DPTR,A
    231            SampleApp_epDesc.simpleDesc
    232                      = (SimpleDescriptionFormat_t *)&SampleApp_SimpleDesc;
   \   00004E   A3           INC     DPTR
   \   00004F   74..         MOV     A,#SampleApp_SimpleDesc & 0xff
   \   000051   F0           MOVX    @DPTR,A
   \   000052   A3           INC     DPTR
   \   000053   74..         MOV     A,#(SampleApp_SimpleDesc >> 8) & 0xff
   \   000055   F0           MOVX    @DPTR,A
    233            SampleApp_epDesc.latencyReq = noLatencyReqs;
   \   000056   A3           INC     DPTR
   \   000057   E4           CLR     A
   \   000058   F0           MOVX    @DPTR,A
    234          
    235            // Register the endpoint description with the AF
    236            afRegister( &SampleApp_epDesc );
   \   000059                ; Setup parameters for call to function afRegister
   \   000059   7A..         MOV     R2,#SampleApp_epDesc & 0xff
   \   00005B   7B..         MOV     R3,#(SampleApp_epDesc >> 8) & 0xff
   \   00005D   12....       LCALL   ??afRegister?relay
    237          
    238            // Register for all key events - This app will handle all key events
    239            RegisterForKeys( SampleApp_TaskID );
   \   000060                ; Setup parameters for call to function RegisterForKeys
   \   000060   90....       MOV     DPTR,#SampleApp_TaskID
   \   000063   E0           MOVX    A,@DPTR
   \   000064   F9           MOV     R1,A
   \   000065   12....       LCALL   ??RegisterForKeys?relay
    240          
    241            // By default, all devices start out in Group 1
    242            SampleApp_Group.ID = 0x0001;
   \   000068   90....       MOV     DPTR,#SampleApp_Group
   \   00006B   7401         MOV     A,#0x1
   \   00006D   F0           MOVX    @DPTR,A
   \   00006E   A3           INC     DPTR
   \   00006F   E4           CLR     A
   \   000070   F0           MOVX    @DPTR,A
    243            osal_memcpy( SampleApp_Group.name, "Group 1", 7  );
   \   000071                ; Setup parameters for call to function osal_memcpy
   \   000071   75....       MOV     ?V0 + 0,#`?<Constant "Group 1">` & 0xff
   \   000074   75....       MOV     ?V0 + 1,#(`?<Constant "Group 1">` >> 8) & 0xff
   \   000077   F5..         MOV     ?V0 + 2,A
   \   000079   78..         MOV     R0,#?V0 + 0
   \   00007B   12....       LCALL   ?PUSH_XSTACK_I_THREE
   \   00007E   7C07         MOV     R4,#0x7
   \   000080   7D00         MOV     R5,#0x0
   \   000082   7A..         MOV     R2,#(SampleApp_Group + 2) & 0xff
   \   000084   7B..         MOV     R3,#((SampleApp_Group + 2) >> 8) & 0xff
   \   000086   12....       LCALL   ??osal_memcpy?relay
   \   000089   7403         MOV     A,#0x3
   \   00008B   12....       LCALL   ?DEALLOC_XSTACK8
    244            aps_AddGroup( SAMPLEAPP_ENDPOINT, &SampleApp_Group );
   \   00008E                ; Setup parameters for call to function aps_AddGroup
   \   00008E   7A..         MOV     R2,#SampleApp_Group & 0xff
   \   000090   7B..         MOV     R3,#(SampleApp_Group >> 8) & 0xff
   \   000092   7914         MOV     R1,#0x14
   \   000094   12....       LCALL   ??aps_AddGroup?relay
    245          
    246          #if defined ( LCD_SUPPORTED )
    247            HalLcdWriteString( "SampleApp", HAL_LCD_LINE_1 );
   \   000097                ; Setup parameters for call to function HalLcdWriteString
   \   000097   7901         MOV     R1,#0x1
   \   000099   7A..         MOV     R2,#`?<Constant "SampleApp">` & 0xff
   \   00009B   7B..         MOV     R3,#(`?<Constant "SampleApp">` >> 8) & 0xff
   \   00009D   12....       LCALL   ??HalLcdWriteString?relay
    248          #endif
    249          }
   \   0000A0   7F03         MOV     R7,#0x3
   \   0000A2   02....       LJMP    ?BANKED_LEAVE_XDATA
   \   0000A5                REQUIRE P1SEL
   \   0000A5                REQUIRE P1DIR
    250          
    251          /*********************************************************************
    252           * @fn      SampleApp_ProcessEvent
    253           *
    254           * @brief   Generic Application Task event processor.  This function
    255           *          is called to process all events for the task.  Events
    256           *          include timers, messages and any other user defined events.
    257           *
    258           * @param   task_id  - The OSAL assigned task ID.
    259           * @param   events - events to process.  This is a bit map and can
    260           *                   contain more than one event.
    261           *
    262           * @return  none
    263           */

   \                                 In  segment BANKED_CODE, align 1, keep-with-next
    264          uint16 SampleApp_ProcessEvent( uint8 task_id, uint16 events )
   \                     SampleApp_ProcessEvent:
    265          {
   \   000000   74F4         MOV     A,#-0xc
   \   000002   12....       LCALL   ?BANKED_ENTER_XDATA
   \   000005                ; Saved register size: 12
   \   000005                ; Auto size: 0
   \   000005   EA           MOV     A,R2
   \   000006   FE           MOV     R6,A
   \   000007   EB           MOV     A,R3
   \   000008   FF           MOV     R7,A
    266            afIncomingMSGPacket_t *MSGpkt;
    267            (void)task_id;  // Intentionally unreferenced parameter
    268          
    269            if ( events & SYS_EVENT_MSG )
   \   000009   5480         ANL     A,#0x80
   \   00000B   6074         JZ      ??SampleApp_ProcessEvent_0
    270            {
    271              MSGpkt = (afIncomingMSGPacket_t *)osal_msg_receive( SampleApp_TaskID );
   \   00000D                ; Setup parameters for call to function osal_msg_receive
   \   00000D   8026         SJMP    ??SampleApp_ProcessEvent_1
    272              //获取事件带来的数据
    273              while ( MSGpkt )
    274              {
    275                switch ( MSGpkt->hdr.event )
    276                {
    277                  // Received when a key is pressed
    278                  case KEY_CHANGE:
    279                    SampleApp_HandleKeys( ((keyChange_t *)MSGpkt)->state, ((keyChange_t *)MSGpkt)->keys );
    280                    break;
    281          
    282                  // Received when a messages is received (OTA) for this endpoint
    283                  case AF_INCOMING_MSG_CMD:
    284                    SampleApp_MessageMSGCB( MSGpkt );
    285                    break;
    286          
    287                  // Received whenever the device changes state in the network
    288                  case ZDO_STATE_CHANGE:
    289                    //自动不断的采集温湿度数据
    290                    SampleApp_NwkState = (devStates_t)(MSGpkt->hdr.status); //
   \                     ??SampleApp_ProcessEvent_2:
   \   00000F   A3           INC     DPTR
   \   000010   E0           MOVX    A,@DPTR
   \   000011   90....       MOV     DPTR,#SampleApp_NwkState
   \   000014   F0           MOVX    @DPTR,A
    291                    if ( (SampleApp_NwkState == DEV_ZB_COORD) //协调器
    292                       // || (SampleApp_NwkState == DEV_ROUTER) //路由
    293                        || (SampleApp_NwkState == DEV_END_DEVICE) )//节点
   \   000015   6409         XRL     A,#0x9
   \   000017   6005         JZ      ??SampleApp_ProcessEvent_3
   \   000019   E0           MOVX    A,@DPTR
   \   00001A   6406         XRL     A,#0x6
   \   00001C   7010         JNZ     ??SampleApp_ProcessEvent_4
    294                    {
    295                      // Start sending the periodic message in a regular interval.
    296                      osal_start_timerEx( SampleApp_TaskID,
    297                                        SAMPLEAPP_SEND_PERIODIC_MSG_EVT,
    298                                        SAMPLEAPP_SEND_PERIODIC_MSG_TIMEOUT );
   \                     ??SampleApp_ProcessEvent_3:
   \   00001E                ; Setup parameters for call to function osal_start_timerEx
   \   00001E   7C88         MOV     R4,#-0x78
   \   000020   7D13         MOV     R5,#0x13
   \   000022   7A01         MOV     R2,#0x1
   \   000024   7B00         MOV     R3,#0x0
   \   000026   90....       MOV     DPTR,#SampleApp_TaskID
   \   000029   E0           MOVX    A,@DPTR
   \   00002A   F9           MOV     R1,A
   \   00002B   12....       LCALL   ??osal_start_timerEx?relay
    299                    }
    300                    else
    301                    {
    302                      // Device is no longer in the network
    303                    }
    304                    break;
    305          
    306                  default:
    307                    break;
    308                }
    309          
    310                // Release the memory
    311                osal_msg_deallocate( (uint8 *)MSGpkt );
   \                     ??SampleApp_ProcessEvent_4:
   \   00002E                ; Setup parameters for call to function osal_msg_deallocate
   \   00002E   AA..         MOV     R2,?V0 + 0
   \   000030   AB..         MOV     R3,?V0 + 1
   \   000032   12....       LCALL   ??osal_msg_deallocate?relay
    312          
    313                // Next - if one is available
    314                MSGpkt = (afIncomingMSGPacket_t *)osal_msg_receive( SampleApp_TaskID );
   \   000035                ; Setup parameters for call to function osal_msg_receive
   \                     ??SampleApp_ProcessEvent_1:
   \   000035   90....       MOV     DPTR,#SampleApp_TaskID
   \   000038   E0           MOVX    A,@DPTR
   \   000039   F9           MOV     R1,A
   \   00003A   12....       LCALL   ??osal_msg_receive?relay
   \   00003D   8A..         MOV     ?V0 + 0,R2
   \   00003F   8B..         MOV     ?V0 + 1,R3
   \   000041   E5..         MOV     A,?V0 + 0
   \   000043   45..         ORL     A,?V0 + 1
   \   000045   6032         JZ      ??SampleApp_ProcessEvent_5
   \   000047   85..82       MOV     DPL,?V0 + 0
   \   00004A   85..83       MOV     DPH,?V0 + 1
   \   00004D   E0           MOVX    A,@DPTR
   \   00004E   24E6         ADD     A,#-0x1a
   \   000050   601E         JZ      ??SampleApp_ProcessEvent_6
   \   000052   245A         ADD     A,#0x5a
   \   000054   6006         JZ      ??SampleApp_ProcessEvent_7
   \   000056   24EF         ADD     A,#-0x11
   \   000058   60B5         JZ      ??SampleApp_ProcessEvent_2
   \   00005A   80D2         SJMP    ??SampleApp_ProcessEvent_4
   \                     ??SampleApp_ProcessEvent_7:
   \   00005C                ; Setup parameters for call to function SampleApp_HandleKeys
   \   00005C   A3           INC     DPTR
   \   00005D   A3           INC     DPTR
   \   00005E   A3           INC     DPTR
   \   00005F   E0           MOVX    A,@DPTR
   \   000060   FA           MOV     R2,A
   \   000061   85..82       MOV     DPL,?V0 + 0
   \   000064   85..83       MOV     DPH,?V0 + 1
   \   000067   A3           INC     DPTR
   \   000068   A3           INC     DPTR
   \   000069   E0           MOVX    A,@DPTR
   \   00006A   F9           MOV     R1,A
   \   00006B   12....       LCALL   ??SampleApp_HandleKeys?relay
   \   00006E   80BE         SJMP    ??SampleApp_ProcessEvent_4
   \                     ??SampleApp_ProcessEvent_6:
   \   000070                ; Setup parameters for call to function SampleApp_MessageMSGCB
   \   000070   AA..         MOV     R2,?V0 + 0
   \   000072   AB..         MOV     R3,?V0 + 1
   \   000074   12....       LCALL   ??SampleApp_MessageMSGCB?relay
   \   000077   80B5         SJMP    ??SampleApp_ProcessEvent_4
    315              }
    316          
    317              // return unprocessed events
    318              return (events ^ SYS_EVENT_MSG);
   \                     ??SampleApp_ProcessEvent_5:
   \   000079   EE           MOV     A,R6
   \   00007A   FA           MOV     R2,A
   \   00007B   EF           MOV     A,R7
   \   00007C   6480         XRL     A,#0x80
   \                     ??SampleApp_ProcessEvent_8:
   \   00007E   FB           MOV     R3,A
   \   00007F   807B         SJMP    ??SampleApp_ProcessEvent_9
    319            }
    320          
    321            // Send a message out - This event is generated by a timer
    322            //  (setup in SampleApp_Init()).
    323            if ( events & SAMPLEAPP_SEND_PERIODIC_MSG_EVT ) //判断是否该事件触发
   \                     ??SampleApp_ProcessEvent_0:
   \   000081   EE           MOV     A,R6
   \   000082   A2E0         MOV     C,0xE0 /* A   */.0
   \   000084   5072         JNC     ??SampleApp_ProcessEvent_10
    324            {             
    325              DHT11_buf[0]='T';
   \   000086   90....       MOV     DPTR,#DHT11_buf
   \   000089   7454         MOV     A,#0x54
   \   00008B   F0           MOVX    @DPTR,A
    326              DHT11_buf[3]='H';
   \   00008C   90....       MOV     DPTR,#DHT11_buf + 3
   \   00008F   7448         MOV     A,#0x48
   \   000091   F0           MOVX    @DPTR,A
    327              DHT11_Read(&T,&H);
   \   000092                ; Setup parameters for call to function DHT11_Read
   \   000092   7C..         MOV     R4,#H & 0xff
   \   000094   7D..         MOV     R5,#(H >> 8) & 0xff
   \   000096   7A..         MOV     R2,#T & 0xff
   \   000098   7B..         MOV     R3,#(T >> 8) & 0xff
   \   00009A   12....       LCALL   ??DHT11_Read?relay
    328              DHT11_buf[1]=(T/10)+'0';  //温度十位
   \   00009D   75F00A       MOV     B,#0xa
   \   0000A0   90....       MOV     DPTR,#T
   \   0000A3   E0           MOVX    A,@DPTR
   \   0000A4   84           DIV     AB
   \   0000A5   2430         ADD     A,#0x30
   \   0000A7   90....       MOV     DPTR,#DHT11_buf + 1
   \   0000AA   F0           MOVX    @DPTR,A
    329              DHT11_buf[2]=(T%10)+'0';  //温度个位
   \   0000AB   90....       MOV     DPTR,#T
   \   0000AE   12....       LCALL   ?Subroutine2 & 0xFFFF
   \                     ??CrossCallReturnLabel_2:
   \   0000B1   90....       MOV     DPTR,#DHT11_buf + 2
   \   0000B4   F0           MOVX    @DPTR,A
    330              
    331              DHT11_buf[4]=(H/10)+'0';  //湿度十位
   \   0000B5   75F00A       MOV     B,#0xa
   \   0000B8   90....       MOV     DPTR,#H
   \   0000BB   E0           MOVX    A,@DPTR
   \   0000BC   84           DIV     AB
   \   0000BD   2430         ADD     A,#0x30
   \   0000BF   90....       MOV     DPTR,#DHT11_buf + 4
   \   0000C2   F0           MOVX    @DPTR,A
    332              DHT11_buf[5]=(H%10)+'0';  //湿度个位
   \   0000C3   90....       MOV     DPTR,#H
   \   0000C6   12....       LCALL   ?Subroutine2 & 0xFFFF
   \                     ??CrossCallReturnLabel_3:
   \   0000C9   90....       MOV     DPTR,#DHT11_buf + 5
   \   0000CC   F0           MOVX    @DPTR,A
    333              
    334              end_send_dht11_data(DHT11_buf,6);
   \   0000CD                ; Setup parameters for call to function end_send_dht11_data
   \   0000CD   7C06         MOV     R4,#0x6
   \   0000CF   7D00         MOV     R5,#0x0
   \   0000D1   7A..         MOV     R2,#DHT11_buf & 0xff
   \   0000D3   7B..         MOV     R3,#(DHT11_buf >> 8) & 0xff
   \   0000D5   12....       LCALL   ??end_send_dht11_data?relay
    335              
    336              // Setup to send message again in normal period (+ a little jitter)
    337              osal_start_timerEx( SampleApp_TaskID, SAMPLEAPP_SEND_PERIODIC_MSG_EVT,
    338                  (SAMPLEAPP_SEND_PERIODIC_MSG_TIMEOUT + (osal_rand() & 0x008F)) );
   \   0000D8                ; Setup parameters for call to function osal_rand
   \   0000D8   12....       LCALL   ??osal_rand?relay
   \   0000DB                ; Setup parameters for call to function osal_start_timerEx
   \   0000DB   EA           MOV     A,R2
   \   0000DC   548F         ANL     A,#0x8f
   \   0000DE   2488         ADD     A,#-0x78
   \   0000E0   FC           MOV     R4,A
   \   0000E1   E4           CLR     A
   \   0000E2   3413         ADDC    A,#0x13
   \   0000E4   FD           MOV     R5,A
   \   0000E5   7A01         MOV     R2,#0x1
   \   0000E7   7B00         MOV     R3,#0x0
   \   0000E9   90....       MOV     DPTR,#SampleApp_TaskID
   \   0000EC   E0           MOVX    A,@DPTR
   \   0000ED   F9           MOV     R1,A
   \   0000EE   12....       LCALL   ??osal_start_timerEx?relay
    339          
    340              // return unprocessed events
    341              return (events ^ SAMPLEAPP_SEND_PERIODIC_MSG_EVT);
   \   0000F1   EE           MOV     A,R6
   \   0000F2   6401         XRL     A,#0x1
   \   0000F4   FA           MOV     R2,A
   \   0000F5   EF           MOV     A,R7
   \   0000F6   8086         SJMP    ??SampleApp_ProcessEvent_8
    342            }
    343          
    344            return 0;
   \                     ??SampleApp_ProcessEvent_10:
   \   0000F8   7A00         MOV     R2,#0x0
   \   0000FA   7B00         MOV     R3,#0x0
   \                     ??SampleApp_ProcessEvent_9:
   \   0000FC   7F04         MOV     R7,#0x4
   \   0000FE   02....       LJMP    ?BANKED_LEAVE_XDATA
    345          }

   \                                 In  segment BANKED_CODE, align 1, keep-with-next
   \                     ?Subroutine2:
   \   000000   E0           MOVX    A,@DPTR
   \   000001   75F00A       MOV     B,#0xa
   \   000004   84           DIV     AB
   \   000005   E5F0         MOV     A,B
   \   000007   2430         ADD     A,#0x30
   \   000009   22           RET
    346          
    347          /*********************************************************************
    348           * Event Generation Functions
    349           */
    350          /*********************************************************************
    351           * @fn      SampleApp_HandleKeys
    352           *
    353           * @brief   Handles all key events for this device.
    354           *
    355           * @param   shift - true if in shift/alt.
    356           * @param   keys - bit field for key events. Valid entries:
    357           *                 HAL_KEY_SW_2
    358           *                 HAL_KEY_SW_1
    359           *
    360           * @return  none
    361           */

   \                                 In  segment BANKED_CODE, align 1, keep-with-next
    362          void SampleApp_HandleKeys( uint8 shift, uint8 keys )
   \                     SampleApp_HandleKeys:
    363          {
   \   000000   74F6         MOV     A,#-0xa
   \   000002   12....       LCALL   ?BANKED_ENTER_XDATA
   \   000005                ; Saved register size: 10
   \   000005                ; Auto size: 0
   \   000005   EA           MOV     A,R2
   \   000006   FE           MOV     R6,A
    364            (void)shift;  // Intentionally unreferenced parameter
    365            
    366            if ( keys & HAL_KEY_SW_1 )
   \   000007   A2E0         MOV     C,0xE0 /* A   */.0
   \   000009   5007         JNC     ??SampleApp_HandleKeys_0
    367            {
    368              /* This key sends the Flash Command is sent to Group 1.
    369               * This device will not receive the Flash Command from this
    370               * device (even if it belongs to group 1).
    371               */
    372              SampleApp_SendFlashMessage( SAMPLEAPP_FLASH_DURATION );
   \   00000B                ; Setup parameters for call to function SampleApp_SendFlashMessage
   \   00000B   7AE8         MOV     R2,#-0x18
   \   00000D   7B03         MOV     R3,#0x3
   \   00000F   12....       LCALL   ??SampleApp_SendFlashMessage?relay
    373            }
    374          
    375            if ( keys & HAL_KEY_SW_2 )
   \                     ??SampleApp_HandleKeys_0:
   \   000012   EE           MOV     A,R6
   \   000013   A2E1         MOV     C,0xE0 /* A   */.1
   \   000015   5024         JNC     ??SampleApp_HandleKeys_1
    376            {
    377              /* The Flashr Command is sent to Group 1.
    378               * This key toggles this device in and out of group 1.
    379               * If this device doesn't belong to group 1, this application
    380               * will not receive the Flash command sent to group 1.
    381               */
    382              aps_Group_t *grp;
    383              grp = aps_FindGroup( SAMPLEAPP_ENDPOINT, SAMPLEAPP_FLASH_GROUP );
    384              if ( grp )
   \   000017                ; Setup parameters for call to function aps_FindGroup
   \   000017   7A01         MOV     R2,#0x1
   \   000019   7B00         MOV     R3,#0x0
   \   00001B   7914         MOV     R1,#0x14
   \   00001D   12....       LCALL   ??aps_FindGroup?relay
   \   000020   8B..         MOV     ?V0 + 1,R3
   \   000022   EA           MOV     A,R2
   \   000023   45..         ORL     A,?V0 + 1
   \   000025   600B         JZ      ??SampleApp_HandleKeys_2
    385              {
    386                // Remove from the group
    387                aps_RemoveGroup( SAMPLEAPP_ENDPOINT, SAMPLEAPP_FLASH_GROUP );
   \   000027                ; Setup parameters for call to function aps_RemoveGroup
   \   000027   7A01         MOV     R2,#0x1
   \   000029   7B00         MOV     R3,#0x0
   \   00002B   7914         MOV     R1,#0x14
   \   00002D   12....       LCALL   ??aps_RemoveGroup?relay
   \   000030   8009         SJMP    ??SampleApp_HandleKeys_1
    388              }
    389              else
    390              {
    391                // Add to the flash group
    392                aps_AddGroup( SAMPLEAPP_ENDPOINT, &SampleApp_Group );
   \                     ??SampleApp_HandleKeys_2:
   \   000032                ; Setup parameters for call to function aps_AddGroup
   \   000032   7A..         MOV     R2,#SampleApp_Group & 0xff
   \   000034   7B..         MOV     R3,#(SampleApp_Group >> 8) & 0xff
   \   000036   7914         MOV     R1,#0x14
   \   000038   12....       LCALL   ??aps_AddGroup?relay
    393              }
    394            }
    395          }
   \                     ??SampleApp_HandleKeys_1:
   \   00003B   02....       LJMP    ??Subroutine4_0 & 0xFFFF

   \                                 In  segment BANKED_CODE, align 1, keep-with-next
   \                     ??Subroutine4_0:
   \   000000   7F02         MOV     R7,#0x2
   \   000002   02....       LJMP    ?BANKED_LEAVE_XDATA
    396          
    397          /*********************************************************************
    398           * LOCAL FUNCTIONS
    399           */
    400          
    401          /*********************************************************************
    402           * @fn      SampleApp_MessageMSGCB
    403           *
    404           * @brief   Data message processor callback.  This function processes
    405           *          any incoming data - probably from other devices.  So, based
    406           *          on cluster ID, perform the intended action.
    407           *
    408           * @param   none
    409           *
    410           * @return  none
    411           */

   \                                 In  segment BANKED_CODE, align 1, keep-with-next
    412          void SampleApp_MessageMSGCB( afIncomingMSGPacket_t *pkt )
   \                     SampleApp_MessageMSGCB:
    413          {
   \   000000   74F6         MOV     A,#-0xa
   \   000002   12....       LCALL   ?BANKED_ENTER_XDATA
   \   000005                ; Saved register size: 10
   \   000005                ; Auto size: 0
    414            uint16 flashTime;
    415          
    416            switch ( pkt->clusterId )
   \   000005   8A82         MOV     DPL,R2
   \   000007   8B83         MOV     DPH,R3
   \   000009   A3           INC     DPTR
   \   00000A   A3           INC     DPTR
   \   00000B   A3           INC     DPTR
   \   00000C   A3           INC     DPTR
   \   00000D   E0           MOVX    A,@DPTR
   \   00000E   F5..         MOV     ?V0 + 0,A
   \   000010   A3           INC     DPTR
   \   000011   E0           MOVX    A,@DPTR
   \   000012   F5..         MOV     ?V0 + 1,A
   \   000014   78..         MOV     R0,#?V0 + 0
   \   000016   12....       LCALL   ?US_SWITCH_DENSE
   \                     `?<Jumptable for SampleApp_MessageMSGCB>_0`:
   \   000019   0200         DW        2
   \   00001B   01           DB        1
   \   00001C   ....         DW        ??SampleApp_MessageMSGCB_0
   \   00001E   ....         DW        ??SampleApp_MessageMSGCB_1
   \   000020   ....         DW        ??SampleApp_MessageMSGCB_2
    417            {
    418              case SAMPLEAPP_PERIODIC_CLUSTERID:
    419                break;
    420          
    421              case SAMPLEAPP_UART_CLUSTERID:
    422                /*
    423                YLED=1;
    424                MicroWait(10000);
    425                YLED=0;
    426                */
    427                 if(pkt->cmd.Data[0]=='1')
   \                     ??SampleApp_MessageMSGCB_2:
   \   000022   12....       LCALL   ?Subroutine1 & 0xFFFF
   \                     ??CrossCallReturnLabel_0:
   \   000025   E0           MOVX    A,@DPTR
   \   000026   6431         XRL     A,#0x31
   \   000028   700E         JNZ     ??SampleApp_MessageMSGCB_3
    428                 {
    429                   if(pkt->cmd.Data[1]=='1')
   \   00002A   A3           INC     DPTR
   \   00002B   E0           MOVX    A,@DPTR
   \   00002C   6431         XRL     A,#0x31
   \   00002E   7004         JNZ     ??SampleApp_MessageMSGCB_4
    430                     YLED=1;
   \   000030   D291         SETB    0x90.1
   \   000032   8042         SJMP    ??SampleApp_MessageMSGCB_0
    431                   else
    432                     YLED=0;
   \                     ??SampleApp_MessageMSGCB_4:
   \   000034   C291         CLR     0x90.1
   \   000036   803E         SJMP    ??SampleApp_MessageMSGCB_0
    433                }
    434                else if(pkt->cmd.Data[0]=='2')
   \                     ??SampleApp_MessageMSGCB_3:
   \   000038   E0           MOVX    A,@DPTR
   \   000039   6432         XRL     A,#0x32
   \   00003B   7039         JNZ     ??SampleApp_MessageMSGCB_0
    435                {
    436                   if(pkt->cmd.Data[1]=='1')
   \   00003D   A3           INC     DPTR
   \   00003E   E0           MOVX    A,@DPTR
   \   00003F   6431         XRL     A,#0x31
   \   000041   7004         JNZ     ??SampleApp_MessageMSGCB_5
    437                     BLED=1;
   \   000043   D290         SETB    0x90.0
   \   000045   802F         SJMP    ??SampleApp_MessageMSGCB_0
    438                   else
    439                     BLED=0;
   \                     ??SampleApp_MessageMSGCB_5:
   \   000047   C290         CLR     0x90.0
   \   000049   802B         SJMP    ??SampleApp_MessageMSGCB_0
    440                }
    441                break;
    442              case SAMPLEAPP_FLASH_CLUSTERID:
    443                flashTime = BUILD_UINT16(pkt->cmd.Data[1], pkt->cmd.Data[2] );
    444                HalLedBlink( HAL_LED_4, 4, 50, (flashTime / 4) );
   \                     ??SampleApp_MessageMSGCB_1:
   \   00004B   12....       LCALL   ?Subroutine1 & 0xFFFF
   \                     ??CrossCallReturnLabel_1:
   \   00004E   A3           INC     DPTR
   \   00004F   E0           MOVX    A,@DPTR
   \   000050   FA           MOV     R2,A
   \   000051   8882         MOV     DPL,R0
   \   000053   8983         MOV     DPH,R1
   \   000055   A3           INC     DPTR
   \   000056   A3           INC     DPTR
   \   000057   E0           MOVX    A,@DPTR
   \   000058   F9           MOV     R1,A
   \   000059   EA           MOV     A,R2
   \   00005A   2400         ADD     A,#0x0
   \   00005C   F5..         MOV     ?V0 + 0,A
   \   00005E   E4           CLR     A
   \   00005F   39           ADDC    A,R1
   \   000060   F5..         MOV     ?V0 + 1,A
   \   000062   7402         MOV     A,#0x2
   \   000064   78..         MOV     R0,#?V0 + 0
   \   000066   12....       LCALL   ?US_SHR
   \   000069   AC..         MOV     R4,?V0 + 0
   \   00006B   AD..         MOV     R5,?V0 + 1
   \   00006D   7B32         MOV     R3,#0x32
   \   00006F   7A04         MOV     R2,#0x4
   \   000071   7908         MOV     R1,#0x8
   \   000073   12....       LCALL   ??HalLedBlink?relay
    445                break;
    446            }
    447          }
   \                     ??SampleApp_MessageMSGCB_0:
   \   000076   02....       LJMP    ??Subroutine4_0 & 0xFFFF
   \   000079                REQUIRE _A_P1

   \                                 In  segment BANKED_CODE, align 1, keep-with-next
   \                     ?Subroutine1:
   \   000000   EA           MOV     A,R2
   \   000001   2421         ADD     A,#0x21
   \   000003   F582         MOV     DPL,A
   \   000005   EB           MOV     A,R3
   \   000006   3400         ADDC    A,#0x0
   \   000008   F583         MOV     DPH,A
   \   00000A   E0           MOVX    A,@DPTR
   \   00000B   F8           MOV     R0,A
   \   00000C   A3           INC     DPTR
   \   00000D   E0           MOVX    A,@DPTR
   \   00000E   F9           MOV     R1,A
   \   00000F                ; Setup parameters for call to function HalLedBlink
   \   00000F   8882         MOV     DPL,R0
   \   000011   8983         MOV     DPH,R1
   \   000013   22           RET
    448          
    449          /*********************************************************************
    450           * @fn      SampleApp_SendPeriodicMessage
    451           *
    452           * @brief   Send the periodic message.
    453           *
    454           * @param   none
    455           *
    456           * @return  none
    457           */

   \                                 In  segment BANKED_CODE, align 1, keep-with-next
    458          void SampleApp_SendPeriodicMessage( void )
   \                     SampleApp_SendPeriodicMessage:
    459          {
   \   000000   74F6         MOV     A,#-0xa
   \   000002   12....       LCALL   ?BANKED_ENTER_XDATA
   \   000005                ; Saved register size: 10
   \   000005                ; Auto size: 0
    460            if ( AF_DataRequest( &SampleApp_Periodic_DstAddr, &SampleApp_epDesc,
    461                                 SAMPLEAPP_PERIODIC_CLUSTERID,
    462                                 1,
    463                                 (uint8*)&SampleAppPeriodicCounter,
    464                                 &SampleApp_TransID,
    465                                 AF_DISCV_ROUTE,
    466                                 AF_DEFAULT_RADIUS ) == afStatus_SUCCESS )
   \   000005                ; Setup parameters for call to function AF_DataRequest
   \   000005   75..1E       MOV     ?V0 + 0,#0x1e
   \   000008   78..         MOV     R0,#?V0 + 0
   \   00000A   12....       LCALL   ?PUSH_XSTACK_I_ONE
   \   00000D   75....       MOV     ?V0 + 0,#SampleApp_TransID & 0xff
   \   000010   75....       MOV     ?V0 + 1,#(SampleApp_TransID >> 8) & 0xff
   \   000013   78..         MOV     R0,#?V0 + 0
   \   000015   12....       LCALL   ?PUSH_XSTACK_I_TWO
   \   000018   75....       MOV     ?V0 + 0,#SampleAppPeriodicCounter & 0xff
   \   00001B   75....       MOV     ?V0 + 1,#(SampleAppPeriodicCounter >> 8) & 0xff
   \   00001E   78..         MOV     R0,#?V0 + 0
   \   000020   12....       LCALL   ?PUSH_XSTACK_I_TWO
   \   000023   75..01       MOV     ?V0 + 0,#0x1
   \   000026   75..00       MOV     ?V0 + 1,#0x0
   \   000029   78..         MOV     R0,#?V0 + 0
   \   00002B   12....       LCALL   ?PUSH_XSTACK_I_TWO
   \   00002E   80..         SJMP    ?Subroutine0
    467            {
    468            }
    469            else
    470            {
    471              // Error occurred in request to send.
    472            }
    473          }

   \                                 In  segment BANKED_CODE, align 1, keep-with-next
   \                     ?Subroutine0:
   \   000000   78..         MOV     R0,#?V0 + 0
   \   000002   12....       LCALL   ?PUSH_XSTACK_I_TWO
   \   000005   7920         MOV     R1,#0x20
   \   000007   7C..         MOV     R4,#SampleApp_epDesc & 0xff
   \   000009   7D..         MOV     R5,#(SampleApp_epDesc >> 8) & 0xff
   \   00000B   7A..         MOV     R2,#SampleApp_Periodic_DstAddr & 0xff
   \   00000D   7B..         MOV     R3,#(SampleApp_Periodic_DstAddr >> 8) & 0xff
   \   00000F   12....       LCALL   ??AF_DataRequest?relay
   \   000012   7409         MOV     A,#0x9
   \   000014                REQUIRE ??Subroutine3_0
   \   000014                ; // Fall through to label ??Subroutine3_0

   \                                 In  segment BANKED_CODE, align 1, keep-with-next
   \                     ??Subroutine3_0:
   \   000000   12....       LCALL   ?DEALLOC_XSTACK8
   \   000003                REQUIRE ??Subroutine4_0
   \   000003                ; // Fall through to label ??Subroutine4_0
    474          
    475          /*********************************************************************
    476           * @fn      SampleApp_SendFlashMessage
    477           *
    478           * @brief   Send the flash message to group 1.
    479           *
    480           * @param   flashTime - in milliseconds
    481           *
    482           * @return  none
    483           */

   \                                 In  segment BANKED_CODE, align 1, keep-with-next
    484          void SampleApp_SendFlashMessage( uint16 flashTime )
   \                     SampleApp_SendFlashMessage:
    485          {
   \   000000   74F6         MOV     A,#-0xa
   \   000002   12....       LCALL   ?BANKED_ENTER_XDATA
   \   000005                ; Saved register size: 10
   \   000005                ; Auto size: 3
   \   000005   74FD         MOV     A,#-0x3
   \   000007   12....       LCALL   ?ALLOC_XSTACK8
    486            uint8 buffer[3];
    487            buffer[0] = (uint8)(SampleAppFlashCounter++);
   \   00000A   90....       MOV     DPTR,#SampleAppFlashCounter
   \   00000D   E0           MOVX    A,@DPTR
   \   00000E   85..82       MOV     DPL,?XSP + 0
   \   000011   85..83       MOV     DPH,?XSP + 1
   \   000014   F0           MOVX    @DPTR,A
   \   000015   90....       MOV     DPTR,#SampleAppFlashCounter
   \   000018   E0           MOVX    A,@DPTR
   \   000019   04           INC     A
   \   00001A   F0           MOVX    @DPTR,A
    488            buffer[1] = LO_UINT16( flashTime );
   \   00001B   7401         MOV     A,#0x1
   \   00001D   12....       LCALL   ?XSTACK_DISP0_8
   \   000020   EA           MOV     A,R2
   \   000021   F0           MOVX    @DPTR,A
    489            buffer[2] = HI_UINT16( flashTime );
   \   000022   7402         MOV     A,#0x2
   \   000024   12....       LCALL   ?XSTACK_DISP0_8
   \   000027   EB           MOV     A,R3
   \   000028   F0           MOVX    @DPTR,A
    490          
    491            if ( AF_DataRequest( &SampleApp_Flash_DstAddr, &SampleApp_epDesc,
    492                                 SAMPLEAPP_FLASH_CLUSTERID,
    493                                 3,
    494                                 buffer,
    495                                 &SampleApp_TransID,
    496                                 AF_DISCV_ROUTE,
    497                                 AF_DEFAULT_RADIUS ) == afStatus_SUCCESS )
   \   000029                ; Setup parameters for call to function AF_DataRequest
   \   000029   75..1E       MOV     ?V0 + 0,#0x1e
   \   00002C   78..         MOV     R0,#?V0 + 0
   \   00002E   12....       LCALL   ?PUSH_XSTACK_I_ONE
   \   000031   75....       MOV     ?V0 + 0,#SampleApp_TransID & 0xff
   \   000034   75....       MOV     ?V0 + 1,#(SampleApp_TransID >> 8) & 0xff
   \   000037   78..         MOV     R0,#?V0 + 0
   \   000039   12....       LCALL   ?PUSH_XSTACK_I_TWO
   \   00003C   7403         MOV     A,#0x3
   \   00003E   12....       LCALL   ?XSTACK_DISP0_8
   \   000041   8582..       MOV     ?V0 + 0,DPL
   \   000044   8583..       MOV     ?V0 + 1,DPH
   \   000047   78..         MOV     R0,#?V0 + 0
   \   000049   12....       LCALL   ?PUSH_XSTACK_I_TWO
   \   00004C   75..03       MOV     ?V0 + 0,#0x3
   \   00004F   75..00       MOV     ?V0 + 1,#0x0
   \   000052   78..         MOV     R0,#?V0 + 0
   \   000054   12....       LCALL   ?PUSH_XSTACK_I_TWO
   \   000057   75..02       MOV     ?V0 + 0,#0x2
   \   00005A   78..         MOV     R0,#?V0 + 0
   \   00005C   12....       LCALL   ?PUSH_XSTACK_I_TWO
   \   00005F   7920         MOV     R1,#0x20
   \   000061   7C..         MOV     R4,#SampleApp_epDesc & 0xff
   \   000063   7D..         MOV     R5,#(SampleApp_epDesc >> 8) & 0xff
   \   000065   7A..         MOV     R2,#SampleApp_Flash_DstAddr & 0xff
   \   000067   7B..         MOV     R3,#(SampleApp_Flash_DstAddr >> 8) & 0xff
   \   000069   12....       LCALL   ??AF_DataRequest?relay
   \   00006C   7409         MOV     A,#0x9
   \   00006E   12....       LCALL   ?DEALLOC_XSTACK8
    498            {
    499            }
    500            else
    501            {
    502              // Error occurred in request to send.
    503            }
    504          }
   \   000071   7403         MOV     A,#0x3
   \   000073   80..         SJMP    ??Subroutine3_0
    505          

   \                                 In  segment BANKED_CODE, align 1, keep-with-next
    506          void delay_ms()
   \                     delay_ms:
    507          {
   \   000000                ; Saved register size: 0
   \   000000                ; Auto size: 0
    508            unsigned int i=0;
    509            for(i=0;i<50000;i++);
    510          }
   \   000000   02....       LJMP    ?BRET

   \                                 In  segment BANKED_CODE, align 1, keep-with-next
    511          void end_send_dht11_data( uint8 *buf, uint16 len )
   \                     end_send_dht11_data:
    512          {
   \   000000   74F6         MOV     A,#-0xa
   \   000002   12....       LCALL   ?BANKED_ENTER_XDATA
   \   000005                ; Saved register size: 10
   \   000005                ; Auto size: 0
    513            if ( AF_DataRequest( &SampleApp_Periodic_DstAddr, &SampleApp_epDesc,
    514                                 SAMPLEAPP_TEMP_CLUSTERID,   //透传的事件
    515                                 len,  //数据长度
    516                                 buf,  //数据内容地址
    517                                 &SampleApp_TransID,
    518                                 AF_DISCV_ROUTE,
    519                                 AF_DEFAULT_RADIUS ) == afStatus_SUCCESS )
   \   000005                ; Setup parameters for call to function AF_DataRequest
   \   000005   75..1E       MOV     ?V0 + 0,#0x1e
   \   000008   78..         MOV     R0,#?V0 + 0
   \   00000A   12....       LCALL   ?PUSH_XSTACK_I_ONE
   \   00000D   75....       MOV     ?V0 + 0,#SampleApp_TransID & 0xff
   \   000010   75....       MOV     ?V0 + 1,#(SampleApp_TransID >> 8) & 0xff
   \   000013   78..         MOV     R0,#?V0 + 0
   \   000015   12....       LCALL   ?PUSH_XSTACK_I_TWO
   \   000018   8A..         MOV     ?V0 + 0,R2
   \   00001A   8B..         MOV     ?V0 + 1,R3
   \   00001C   78..         MOV     R0,#?V0 + 0
   \   00001E   12....       LCALL   ?PUSH_XSTACK_I_TWO
   \   000021   8C..         MOV     ?V0 + 0,R4
   \   000023   8D..         MOV     ?V0 + 1,R5
   \   000025   78..         MOV     R0,#?V0 + 0
   \   000027   12....       LCALL   ?PUSH_XSTACK_I_TWO
   \   00002A   75..04       MOV     ?V0 + 0,#0x4
   \   00002D   75..00       MOV     ?V0 + 1,#0x0
   \   000030   80..         SJMP    ?Subroutine0
    520            {
    521            }
    522            else
    523            {
    524              // Error occurred in request to send.
    525            }
    526          }

   \                                 In  segment BANK_RELAYS, align 1
   \                     ??SampleApp_Init?relay:
   \   000000   12....       LCALL   ?BDISPATCH
   \   000003   ......       DC24    SampleApp_Init

   \                                 In  segment BANK_RELAYS, align 1
   \                     ??SampleApp_ProcessEvent?relay:
   \   000000   12....       LCALL   ?BDISPATCH
   \   000003   ......       DC24    SampleApp_ProcessEvent

   \                                 In  segment BANK_RELAYS, align 1
   \                     ??SampleApp_HandleKeys?relay:
   \   000000   12....       LCALL   ?BDISPATCH
   \   000003   ......       DC24    SampleApp_HandleKeys

   \                                 In  segment BANK_RELAYS, align 1
   \                     ??SampleApp_MessageMSGCB?relay:
   \   000000   12....       LCALL   ?BDISPATCH
   \   000003   ......       DC24    SampleApp_MessageMSGCB

   \                                 In  segment BANK_RELAYS, align 1
   \                     ??SampleApp_SendPeriodicMessage?relay:
   \   000000   12....       LCALL   ?BDISPATCH
   \   000003   ......       DC24    SampleApp_SendPeriodicMessage

   \                                 In  segment BANK_RELAYS, align 1
   \                     ??SampleApp_SendFlashMessage?relay:
   \   000000   12....       LCALL   ?BDISPATCH
   \   000003   ......       DC24    SampleApp_SendFlashMessage

   \                                 In  segment BANK_RELAYS, align 1
   \                     ??delay_ms?relay:
   \   000000   12....       LCALL   ?BDISPATCH
   \   000003   ......       DC24    delay_ms

   \                                 In  segment BANK_RELAYS, align 1
   \                     ??end_send_dht11_data?relay:
   \   000000   12....       LCALL   ?BDISPATCH
   \   000003   ......       DC24    end_send_dht11_data

   \                                 In  segment XDATA_ROM_C, align 1
   \                     `?<Constant "Group 1">`:
   \   000000   47726F75     DB "Group 1"
   \            70203100

   \                                 In  segment XDATA_ROM_C, align 1
   \                     `?<Constant "SampleApp">`:
   \   000000   53616D70     DB "SampleApp"
   \            6C654170
   \            7000    
    527          /*********************************************************************
    528          *********************************************************************/

   Maximum stack usage in bytes:

     Function                       ISTACK PSTACK XSTACK
     --------                       ------ ------ ------
     SampleApp_HandleKeys               0      0     22
       -> SampleApp_SendFlashMessage
                                        0      0     20
       -> aps_FindGroup                 0      0     20
       -> aps_RemoveGroup               0      0     20
       -> aps_AddGroup                  0      0     20
     SampleApp_Init                     0      0     14
       -> afRegister                    0      0     22
       -> RegisterForKeys               0      0     22
       -> osal_memcpy                   0      0     28
       -> aps_AddGroup                  0      0     22
       -> HalLcdWriteString             0      0     22
     SampleApp_MessageMSGCB             0      0     22
       -> HalLedBlink                   0      0     20
     SampleApp_ProcessEvent             0      0     12
       -> osal_msg_receive              0      0     24
       -> osal_start_timerEx            0      0     24
       -> osal_msg_deallocate           0      0     24
       -> osal_msg_receive              0      0     24
       -> SampleApp_HandleKeys          0      0     24
       -> SampleApp_MessageMSGCB        0      0     24
       -> DHT11_Read                    0      0     24
       -> end_send_dht11_data           0      0     24
       -> osal_rand                     0      0     24
       -> osal_start_timerEx            0      0     24
     SampleApp_SendFlashMessage         1      0     32
       -> AF_DataRequest                0      0     44
     SampleApp_SendPeriodicMessage      0      0     19
       -> AF_DataRequest                0      0     38
     delay_ms                           0      0      0
     end_send_dht11_data                0      0     31
       -> AF_DataRequest                0      0     38


   Segment part sizes:

     Function/Label                        Bytes
     --------------                        -----
     _A_P1                                    1
     P1SEL                                    1
     P1DIR                                    1
     DHT11_buf                                6
     T                                        1
     H                                        1
     SampleApp_ClusterList                    4
     SampleApp_SimpleDesc                    12
     SampleApp_epDesc                         6
     SampleApp_TaskID                         1
     SampleApp_NwkState                       1
     SampleApp_TransID                        1
     SampleApp_Periodic_DstAddr              12
     SampleApp_Flash_DstAddr                 12
     SampleApp_Group                         18
     SampleAppPeriodicCounter                 1
     SampleAppFlashCounter                    1
     SampleApp_Init                         165
     SampleApp_ProcessEvent                 257
     ?Subroutine2                            10
     SampleApp_HandleKeys                    62
     ??Subroutine4_0                          5
     SampleApp_MessageMSGCB                 121
     ?Subroutine1                            20
     SampleApp_SendPeriodicMessage           48
     ?Subroutine0                            20
     ??Subroutine3_0                          3
     SampleApp_SendFlashMessage             117
     delay_ms                                 3
     end_send_dht11_data                     50
     ??SampleApp_Init?relay                   6
     ??SampleApp_ProcessEvent?relay           6
     ??SampleApp_HandleKeys?relay             6
     ??SampleApp_MessageMSGCB?relay           6
     ??SampleApp_SendPeriodicMessage?relay    6
     ??SampleApp_SendFlashMessage?relay       6
     ??delay_ms?relay                         6
     ??end_send_dht11_data?relay              6
     ?<Constant "Group 1">                    8
     ?<Constant "SampleApp">                 10

 
 881 bytes in segment BANKED_CODE
  48 bytes in segment BANK_RELAYS
   3 bytes in segment SFR_AN
  34 bytes in segment XDATA_ROM_C
  61 bytes in segment XDATA_Z
 
 929 bytes of CODE  memory
  34 bytes of CONST memory
   0 bytes of DATA  memory (+ 3 bytes shared)
  61 bytes of XDATA memory

Errors: none
Warnings: none
